(dp1
S'cfg'
p2
(dp3
sS'manual'
p4
I00
sS'n'
I2
sS'trials'
p5
I24
sS'session'
p6
(dp7
S'vis2'
p8
(lp9
I1
aI5
aI7
aI3
aI8
aI1
aI8
aI3
aI6
aI8
aI7
aI5
aI7
aI6
aI8
aI7
aI4
aI1
aI4
aI8
aI3
aI5
aI2
aI3
asS'vis3'
p10
(lp11
I1
aI5
aI8
aI5
aI4
aI5
aI6
aI1
aI5
aI1
aI5
aI1
aI4
aI6
aI7
aI4
aI7
aI8
aI4
aI2
aI1
aI7
aI7
aI6
asS'vis1'
p12
(lp13
I6
aI6
aI5
aI2
aI2
aI5
aI7
aI6
aI4
aI6
aI5
aI5
aI7
aI7
aI7
aI4
aI5
aI3
aI8
aI2
aI7
aI1
aI3
aI5
asS'vis3_input'
p14
(lp15
I00
aI00
aI00
aI00
aI00
aI00
aI00
aI00
aI00
aI00
aI00
aI00
aI00
aI00
aI00
aI00
aI00
aI00
aI00
aI00
aI00
aI00
aI00
aI00
asS'color'
p16
(lp17
I1
aI1
aI1
aI1
aI1
aI1
aI1
aI1
aI1
aI1
aI1
aI1
aI1
aI1
aI1
aI1
aI1
aI1
aI1
aI1
aI1
aI1
aI1
aI1
asS'position4_input'
p18
(lp19
I00
aI00
aI00
aI00
aI00
aI00
aI00
aI00
aI00
aI00
aI00
aI00
aI00
aI00
aI00
aI00
aI00
aI00
aI00
aI00
aI00
aI00
aI00
aI00
asS'image'
p20
(lp21
I0
aI0
aI0
aI0
aI0
aI0
aI0
aI0
aI0
aI0
aI0
aI0
aI0
aI0
aI0
aI0
aI0
aI0
aI0
aI0
aI0
aI0
aI0
aI0
asS'position3_input'
p22
(lp23
I00
aI00
aI00
aI00
aI00
aI00
aI00
aI00
aI00
aI00
aI00
aI00
aI00
aI00
aI00
aI00
aI00
aI00
aI00
aI00
aI00
aI00
aI00
aI00
asS'color_input'
p24
(lp25
I00
aI00
aI00
aI00
aI00
aI00
aI00
aI00
aI00
aI00
aI00
aI00
aI00
aI00
aI00
aI00
aI00
aI00
aI00
aI00
aI00
aI00
aI00
aI00
asS'vis'
p26
(lp27
I0
aI0
aI0
aI0
aI0
aI0
aI0
aI0
aI0
aI0
aI0
aI0
aI0
aI0
aI0
aI0
aI0
aI0
aI0
aI0
aI0
aI0
aI0
aI0
asS'audio_input'
p28
(lp29
I00
aI00
aI00
aI00
aI00
aI00
aI00
aI00
aI00
aI00
aI00
aI00
aI00
aI00
aI00
aI00
aI00
aI00
aI00
aI00
aI00
aI00
aI00
aI00
asS'numbers'
p30
(lp31
I8
aI9
aI4
aI1
aI6
aI0
aI7
aI2
aI5
aI1
aI6
aI12
aI12
aI5
aI10
aI4
aI7
aI7
aI10
aI5
aI0
aI11
aI4
aI2
asS'position2_input'
p32
(lp33
I00
aI00
aI00
aI00
aI00
aI00
aI00
aI00
aI00
aI00
aI01
aI01
aI01
aI00
aI01
aI00
aI00
aI00
aI00
aI00
aI01
aI01
aI00
aI01
asS'vis4_rt'
p34
(lp35
F0
aF0
aF0
aF0
aF0
aF0
aF0
aF0
aF0
aF0
aF0
aF0
aF0
aF0
aF0
aF0
aF0
aF0
aF0
aF0
aF0
aF0
aF0
aF0
asS'operation'
p36
(lp37
S'divide'
p38
aS'subtract'
p39
aS'multiply'
p40
aS'add'
p41
ag38
ag41
ag40
ag39
ag40
ag41
ag40
ag38
ag38
ag41
ag39
ag39
ag40
ag38
ag39
ag41
ag38
ag41
ag41
ag38
asS'position4_rt'
p42
(lp43
F0
aF0
aF0
aF0
aF0
aF0
aF0
aF0
aF0
aF0
aF0
aF0
aF0
aF0
aF0
aF0
aF0
aF0
aF0
aF0
aF0
aF0
aF0
aF0
asS'vis2_input'
p44
(lp45
I00
aI00
aI00
aI00
aI00
aI00
aI00
aI00
aI00
aI00
aI00
aI00
aI00
aI00
aI00
aI00
aI00
aI00
aI00
aI00
aI00
aI00
aI00
aI00
asS'visaudio_rt'
p46
(lp47
F0
aF0
aF0
aF0
aF0
aF0
aF0
aF0
aF0
aF0
aF0
aF0
aF0
aF0
aF0
aF0
aF0
aF0
aF0
aF0
aF0
aF0
aF0
aF0
asS'vis4'
p48
(lp49
I5
aI6
aI7
aI1
aI7
aI3
aI4
aI6
aI2
aI5
aI1
aI2
aI1
aI1
aI8
aI1
aI1
aI2
aI7
aI5
aI8
aI4
aI2
aI2
asS'position2'
p50
(lp51
I3
aI7
aI8
aI7
aI7
aI1
aI5
aI4
aI5
aI7
aI2
aI7
aI5
aI6
aI3
aI5
aI4
aI5
aI8
aI1
aI4
aI5
aI7
aI5
asS'position3'
p52
(lp53
I2
aI5
aI5
aI1
aI5
aI7
aI2
aI6
aI4
aI4
aI8
aI8
aI7
aI4
aI1
aI8
aI5
aI8
aI1
aI3
aI3
aI6
aI6
aI8
asS'position1'
p54
(lp55
I1
aI2
aI3
aI6
aI3
aI6
aI3
aI2
aI6
aI6
aI4
aI1
aI4
aI6
aI5
aI7
aI3
aI2
aI5
aI6
aI8
aI3
aI8
aI2
asS'vis1_input'
p56
(lp57
I00
aI00
aI00
aI00
aI00
aI00
aI00
aI00
aI00
aI00
aI00
aI00
aI00
aI00
aI00
aI00
aI00
aI00
aI00
aI00
aI00
aI00
aI00
aI00
asS'position4'
p58
(lp59
I8
aI1
aI1
aI2
aI2
aI6
aI1
aI7
aI5
aI6
aI1
aI5
aI3
aI8
aI2
aI4
aI1
aI7
aI4
aI5
aI5
aI8
aI5
aI7
asS'audio2_rt'
p60
(lp61
F0
aF0
aF0
aF0
aF0
aF0
aF0
aF0
aF0
aF0
aF0
aF0
aF0
aF0
aF0
aF0
aF0
aF0
aF0
aF0
aF0
aF0
aF0
aF0
asS'image_input'
p62
(lp63
I00
aI00
aI00
aI00
aI00
aI00
aI00
aI00
aI00
aI00
aI00
aI00
aI00
aI00
aI00
aI00
aI00
aI00
aI00
aI00
aI00
aI00
aI00
aI00
asS'vis1_rt'
p64
(lp65
F0
aF0
aF0
aF0
aF0
aF0
aF0
aF0
aF0
aF0
aF0
aF0
aF0
aF0
aF0
aF0
aF0
aF0
aF0
aF0
aF0
aF0
aF0
aF0
asS'visaudio_input'
p66
(lp67
I00
aI00
aI00
aI00
aI00
aI00
aI00
aI00
aI00
aI00
aI00
aI00
aI00
aI00
aI00
aI00
aI00
aI00
aI00
aI00
aI00
aI00
aI00
aI00
asS'position1_input'
p68
(lp69
I00
aI00
aI00
aI00
aI00
aI00
aI00
aI00
aI00
aI00
aI00
aI01
aI00
aI00
aI01
aI01
aI00
aI00
aI00
aI00
aI01
aI00
aI01
aI00
asS'vis3_rt'
p70
(lp71
F0
aF0
aF0
aF0
aF0
aF0
aF0
aF0
aF0
aF0
aF0
aF0
aF0
aF0
aF0
aF0
aF0
aF0
aF0
aF0
aF0
aF0
aF0
aF0
asS'visvis_rt'
p72
(lp73
F0
aF0
aF0
aF0
aF0
aF0
aF0
aF0
aF0
aF0
aF0
aF0
aF0
aF0
aF0
aF0
aF0
aF0
aF0
aF0
aF0
aF0
aF0
aF0
asS'audio2'
p74
(lp75
I5
aI5
aI6
aI8
aI1
aI4
aI1
aI6
aI5
aI7
aI8
aI2
aI2
aI5
aI1
aI1
aI2
aI3
aI6
aI2
aI3
aI5
aI7
aI2
asS'image_rt'
p76
(lp77
F0
aF0
aF0
aF0
aF0
aF0
aF0
aF0
aF0
aF0
aF0
aF0
aF0
aF0
aF0
aF0
aF0
aF0
aF0
aF0
aF0
aF0
aF0
aF0
asS'vis2_rt'
p78
(lp79
F0
aF0
aF0
aF0
aF0
aF0
aF0
aF0
aF0
aF0
aF0
aF0
aF0
aF0
aF0
aF0
aF0
aF0
aF0
aF0
aF0
aF0
aF0
aF0
asS'arithmetic_input'
p80
(lp81
cdecimal
Decimal
p82
(S'0'
tRp83
ag82
(S'0'
tRp84
ag82
(S'0'
tRp85
ag82
(S'0'
tRp86
ag82
(S'0'
tRp87
ag82
(S'0'
tRp88
ag82
(S'0'
tRp89
ag82
(S'0'
tRp90
ag82
(S'0'
tRp91
ag82
(S'0'
tRp92
ag82
(S'0'
tRp93
ag82
(S'0'
tRp94
ag82
(S'0'
tRp95
ag82
(S'0'
tRp96
ag82
(S'0'
tRp97
ag82
(S'0'
tRp98
ag82
(S'0'
tRp99
ag82
(S'0'
tRp100
ag82
(S'0'
tRp101
ag82
(S'0'
tRp102
ag82
(S'0'
tRp103
ag82
(S'0'
tRp104
ag82
(S'0'
tRp105
ag82
(S'0'
tRp106
asS'position3_rt'
p107
(lp108
F0
aF0
aF0
aF0
aF0
aF0
aF0
aF0
aF0
aF0
aF0
aF0
aF0
aF0
aF0
aF0
aF0
aF0
aF0
aF0
aF0
aF0
aF0
aF0
asS'vis4_input'
p109
(lp110
I00
aI00
aI00
aI00
aI00
aI00
aI00
aI00
aI00
aI00
aI00
aI00
aI00
aI00
aI00
aI00
aI00
aI00
aI00
aI00
aI00
aI00
aI00
aI00
asS'audio_rt'
p111
(lp112
F0
aF0
aF0
aF0
aF0
aF0
aF0
aF0
aF0
aF0
aF0
aF0
aF0
aF0
aF0
aF0
aF0
aF0
aF0
aF0
aF0
aF0
aF0
aF0
asS'audio2_input'
p113
(lp114
I00
aI00
aI00
aI00
aI00
aI00
aI00
aI00
aI00
aI00
aI00
aI00
aI00
aI00
aI00
aI00
aI00
aI00
aI00
aI00
aI00
aI00
aI00
aI00
asS'position2_rt'
p115
(lp116
F0
aF0
aF0
aF0
aF0
aF0
aF0
aF0
aF0
aF0
aF2.0480000972747803
aF2.064000129699707
aF1.2200000286102295
aF0
aF0.95399999618530273
aF0
aF0
aF0
aF0
aF0
aF0.87599992752075195
aF0.60899996757507324
aF0
aF0.31299996376037598
asS'audiovis_input'
p117
(lp118
I00
aI00
aI00
aI00
aI00
aI00
aI00
aI00
aI00
aI00
aI00
aI00
aI00
aI00
aI00
aI00
aI00
aI00
aI00
aI00
aI00
aI00
aI00
aI00
asS'color_rt'
p119
(lp120
F0
aF0
aF0
aF0
aF0
aF0
aF0
aF0
aF0
aF0
aF0
aF0
aF0
aF0
aF0
aF0
aF0
aF0
aF0
aF0
aF0
aF0
aF0
aF0
asS'position1_rt'
p121
(lp122
F0
aF0
aF0
aF0
aF0
aF0
aF0
aF0
aF0
aF0
aF0
aF1.3919999599456787
aF0
aF0
aF1.4849998950958252
aF0.65799999237060547
aF0
aF0
aF0
aF0
aF1.9549999237060547
aF0
aF0.4849998950958252
aF0
asS'audiovis_rt'
p123
(lp124
F0
aF0
aF0
aF0
aF0
aF0
aF0
aF0
aF0
aF0
aF0
aF0
aF0
aF0
aF0
aF0
aF0
aF0
aF0
aF0
aF0
aF0
aF0
aF0
asS'audio'
p125
(lp126
I8
aI7
aI7
aI2
aI6
aI3
aI1
aI2
aI3
aI4
aI4
aI6
aI7
aI5
aI5
aI6
aI7
aI5
aI2
aI4
aI8
aI3
aI6
aI1
asS'visvis_input'
p127
(lp128
I00
aI00
aI00
aI00
aI00
aI00
aI00
aI00
aI00
aI00
aI00
aI00
aI00
aI00
aI00
aI00
aI00
aI00
aI00
aI00
aI00
aI00
aI00
aI00
assS'mode'
p129
I29
sS'timestamp'
p130
S'2019-11-03 13:21:32'
p131
sS'summary'
p132
(lp133
S'2019-11-03 13:21:32'
p134
aS'PP2B'
p135
aS'15'
p136
aS'29'
p137
aS'2'
aS'30'
p138
aS'24'
p139
aS'0'
aS'1'
aS'11'
p140
aS'0'
aS'0'
aS'0'
aS'0'
aS'0'
aS'0'
aS'0'
aS'0'
aS'20'
p141
aS'0'
aS'0'
aS'0'
aS'0'
aS'0'
aS'0'
asS'trial_duration'
p142
F3
s.(dp1
S'cfg'
p2
(dp3
sS'manual'
p4
I00
sS'n'
I2
sS'trials'
p5
I24
sS'session'
p6
(dp7
S'vis2'
p8
(lp9
I5
aI1
aI4
aI6
aI3
aI5
aI5
aI1
aI3
aI5
aI2
aI5
aI2
aI1
aI3
aI8
aI8
aI3
aI1
aI7
aI4
aI6
aI7
aI1
asS'vis3'
p10
(lp11
I1
aI5
aI7
aI4
aI8
aI2
aI2
aI7
aI5
aI3
aI3
aI8
aI8
aI1
aI3
aI3
aI1
aI4
aI1
aI3
aI2
aI1
aI1
aI8
asS'vis1'
p12
(lp13
I3
aI1
aI6
aI3
aI8
aI3
aI7
aI3
aI6
aI7
aI6
aI7
aI5
aI6
aI5
aI2
aI7
aI3
aI1
aI5
aI7
aI2
aI7
aI1
asS'vis3_input'
p14
(lp15
I00
aI00
aI00
aI00
aI00
aI00
aI00
aI00
aI00
aI00
aI00
aI00
aI00
aI00
aI00
aI00
aI00
aI00
aI00
aI00
aI00
aI00
aI00
aI00
asS'color'
p16
(lp17
I1
aI1
aI1
aI1
aI1
aI1
aI1
aI1
aI1
aI1
aI1
aI1
aI1
aI1
aI1
aI1
aI1
aI1
aI1
aI1
aI1
aI1
aI1
aI1
asS'position4_input'
p18
(lp19
I00
aI00
aI00
aI00
aI00
aI00
aI00
aI00
aI00
aI00
aI00
aI00
aI00
aI00
aI00
aI00
aI00
aI00
aI00
aI00
aI00
aI00
aI00
aI00
asS'image'
p20
(lp21
I0
aI0
aI0
aI0
aI0
aI0
aI0
aI0
aI0
aI0
aI0
aI0
aI0
aI0
aI0
aI0
aI0
aI0
aI0
aI0
aI0
aI0
aI0
aI0
asS'position3_input'
p22
(lp23
I00
aI00
aI00
aI00
aI00
aI00
aI00
aI00
aI00
aI00
aI00
aI00
aI00
aI00
aI00
aI00
aI00
aI00
aI00
aI00
aI00
aI00
aI00
aI00
asS'color_input'
p24
(lp25
I00
aI00
aI00
aI00
aI00
aI00
aI00
aI00
aI00
aI00
aI00
aI00
aI00
aI00
aI00
aI00
aI00
aI00
aI00
aI00
aI00
aI00
aI00
aI00
asS'vis'
p26
(lp27
I0
aI0
aI0
aI0
aI0
aI0
aI0
aI0
aI0
aI0
aI0
aI0
aI0
aI0
aI0
aI0
aI0
aI0
aI0
aI0
aI0
aI0
aI0
aI0
asS'audio_input'
p28
(lp29
I00
aI00
aI00
aI00
aI00
aI00
aI00
aI00
aI00
aI00
aI00
aI00
aI00
aI00
aI00
aI00
aI00
aI00
aI00
aI00
aI00
aI00
aI00
aI00
asS'numbers'
p30
(lp31
I9
aI1
aI6
aI8
aI5
aI6
aI7
aI5
aI3
aI7
aI2
aI0
aI1
aI11
aI10
aI12
aI7
aI10
aI5
aI11
aI7
aI2
aI1
aI0
asS'position2_input'
p32
(lp33
I00
aI00
aI00
aI00
aI00
aI00
aI00
aI00
aI00
aI00
aI00
aI00
aI00
aI00
aI01
aI00
aI00
aI00
aI00
aI00
aI00
aI00
aI00
aI00
asS'vis4_rt'
p34
(lp35
F0
aF0
aF0
aF0
aF0
aF0
aF0
aF0
aF0
aF0
aF0
aF0
aF0
aF0
aF0
aF0
aF0
aF0
aF0
aF0
aF0
aF0
aF0
aF0
asS'operation'
p36
(lp37
S'divide'
p38
aS'add'
p39
ag38
aS'multiply'
p40
ag38
ag40
aS'subtract'
p41
ag41
ag41
ag39
ag38
ag41
ag40
ag41
ag39
ag40
ag40
ag40
ag41
ag38
ag39
ag38
ag38
ag40
asS'position4_rt'
p42
(lp43
F0
aF0
aF0
aF0
aF0
aF0
aF0
aF0
aF0
aF0
aF0
aF0
aF0
aF0
aF0
aF0
aF0
aF0
aF0
aF0
aF0
aF0
aF0
aF0
asS'vis2_input'
p44
(lp45
I00
aI00
aI00
aI00
aI00
aI00
aI00
aI00
aI00
aI00
aI00
aI00
aI00
aI00
aI00
aI00
aI00
aI00
aI00
aI00
aI00
aI00
aI00
aI00
asS'visaudio_rt'
p46
(lp47
F0
aF0
aF0
aF0
aF0
aF0
aF0
aF0
aF0
aF0
aF0
aF0
aF0
aF0
aF0
aF0
aF0
aF0
aF0
aF0
aF0
aF0
aF0
aF0
asS'vis4'
p48
(lp49
I4
aI4
aI5
aI8
aI2
aI2
aI4
aI7
aI2
aI8
aI5
aI2
aI2
aI2
aI2
aI4
aI2
aI3
aI8
aI8
aI1
aI5
aI5
aI1
asS'position2'
p50
(lp51
I3
aI4
aI8
aI3
aI7
aI8
aI2
aI5
aI8
aI1
aI7
aI5
aI5
aI7
aI7
aI6
aI3
aI6
aI1
aI4
aI6
aI7
aI2
aI2
asS'position3'
p52
(lp53
I1
aI2
aI6
aI1
aI1
aI3
aI1
aI2
aI2
aI4
aI5
aI2
aI2
aI2
aI3
aI1
aI4
aI5
aI8
aI6
aI4
aI8
aI4
aI4
asS'position1'
p54
(lp55
I5
aI8
aI4
aI8
aI6
aI4
aI5
aI3
aI1
aI8
aI2
aI7
aI1
aI7
aI7
aI7
aI7
aI8
aI3
aI8
aI2
aI6
aI6
aI1
asS'vis1_input'
p56
(lp57
I00
aI00
aI00
aI00
aI00
aI00
aI00
aI00
aI00
aI00
aI00
aI00
aI00
aI00
aI00
aI00
aI00
aI00
aI00
aI00
aI00
aI00
aI00
aI00
asS'position4'
p58
(lp59
I6
aI5
aI2
aI4
aI8
aI7
aI7
aI4
aI3
aI2
aI3
aI3
aI7
aI8
aI2
aI8
aI7
aI4
aI5
aI5
aI5
aI3
aI5
aI7
asS'audio2_rt'
p60
(lp61
F0
aF0
aF0
aF0
aF0
aF0
aF0
aF0
aF0
aF0
aF0
aF0
aF0
aF0
aF0
aF0
aF0
aF0
aF0
aF0
aF0
aF0
aF0
aF0
asS'image_input'
p62
(lp63
I00
aI00
aI00
aI00
aI00
aI00
aI00
aI00
aI00
aI00
aI00
aI00
aI00
aI00
aI00
aI00
aI00
aI00
aI00
aI00
aI00
aI00
aI00
aI00
asS'vis1_rt'
p64
(lp65
F0
aF0
aF0
aF0
aF0
aF0
aF0
aF0
aF0
aF0
aF0
aF0
aF0
aF0
aF0
aF0
aF0
aF0
aF0
aF0
aF0
aF0
aF0
aF0
asS'visaudio_input'
p66
(lp67
I00
aI00
aI00
aI00
aI00
aI00
aI00
aI00
aI00
aI00
aI00
aI00
aI00
aI00
aI00
aI00
aI00
aI00
aI00
aI00
aI00
aI00
aI00
aI00
asS'position1_input'
p68
(lp69
I00
aI00
aI00
aI00
aI00
aI00
aI00
aI00
aI00
aI00
aI00
aI00
aI00
aI00
aI01
aI00
aI00
aI00
aI00
aI00
aI00
aI00
aI00
aI00
asS'vis3_rt'
p70
(lp71
F0
aF0
aF0
aF0
aF0
aF0
aF0
aF0
aF0
aF0
aF0
aF0
aF0
aF0
aF0
aF0
aF0
aF0
aF0
aF0
aF0
aF0
aF0
aF0
asS'visvis_rt'
p72
(lp73
F0
aF0
aF0
aF0
aF0
aF0
aF0
aF0
aF0
aF0
aF0
aF0
aF0
aF0
aF0
aF0
aF0
aF0
aF0
aF0
aF0
aF0
aF0
aF0
asS'audio2'
p74
(lp75
I2
aI5
aI3
aI4
aI8
aI1
aI8
aI8
aI2
aI2
aI3
aI4
aI4
aI1
aI7
aI7
aI7
aI1
aI6
aI8
aI5
aI5
aI5
aI6
asS'image_rt'
p76
(lp77
F0
aF0
aF0
aF0
aF0
aF0
aF0
aF0
aF0
aF0
aF0
aF0
aF0
aF0
aF0
aF0
aF0
aF0
aF0
aF0
aF0
aF0
aF0
aF0
asS'vis2_rt'
p78
(lp79
F0
aF0
aF0
aF0
aF0
aF0
aF0
aF0
aF0
aF0
aF0
aF0
aF0
aF0
aF0
aF0
aF0
aF0
aF0
aF0
aF0
aF0
aF0
aF0
asS'arithmetic_input'
p80
(lp81
cdecimal
Decimal
p82
(S'0'
tRp83
ag82
(S'0'
tRp84
ag82
(S'0'
tRp85
ag82
(S'0'
tRp86
ag82
(S'0'
tRp87
ag82
(S'0'
tRp88
ag82
(S'0'
tRp89
ag82
(S'0'
tRp90
ag82
(S'0'
tRp91
ag82
(S'0'
tRp92
ag82
(S'0'
tRp93
ag82
(S'0'
tRp94
ag82
(S'0'
tRp95
ag82
(S'0'
tRp96
ag82
(S'0'
tRp97
ag82
(S'0'
tRp98
ag82
(S'0'
tRp99
ag82
(S'0'
tRp100
ag82
(S'0'
tRp101
ag82
(S'0'
tRp102
ag82
(S'0'
tRp103
ag82
(S'0'
tRp104
ag82
(S'0'
tRp105
ag82
(S'0'
tRp106
asS'position3_rt'
p107
(lp108
F0
aF0
aF0
aF0
aF0
aF0
aF0
aF0
aF0
aF0
aF0
aF0
aF0
aF0
aF0
aF0
aF0
aF0
aF0
aF0
aF0
aF0
aF0
aF0
asS'vis4_input'
p109
(lp110
I00
aI00
aI00
aI00
aI00
aI00
aI00
aI00
aI00
aI00
aI00
aI00
aI00
aI00
aI00
aI00
aI00
aI00
aI00
aI00
aI00
aI00
aI00
aI00
asS'audio_rt'
p111
(lp112
F0
aF0
aF0
aF0
aF0
aF0
aF0
aF0
aF0
aF0
aF0
aF0
aF0
aF0
aF0
aF0
aF0
aF0
aF0
aF0
aF0
aF0
aF0
aF0
asS'audio2_input'
p113
(lp114
I00
aI00
aI00
aI00
aI00
aI00
aI00
aI00
aI00
aI00
aI00
aI00
aI00
aI00
aI00
aI00
aI00
aI00
aI00
aI00
aI00
aI00
aI00
aI00
asS'position2_rt'
p115
(lp116
F0
aF0
aF0
aF0
aF0
aF0
aF0
aF0
aF0
aF0
aF0
aF0
aF0
aF0
aF1.4219999313354492
aF0
aF0
aF0
aF0
aF0
aF0
aF0
aF0
aF0
asS'audiovis_input'
p117
(lp118
I00
aI00
aI00
aI00
aI00
aI00
aI00
aI00
aI00
aI00
aI00
aI00
aI00
aI00
aI00
aI00
aI00
aI00
aI00
aI00
aI00
aI00
aI00
aI00
asS'color_rt'
p119
(lp120
F0
aF0
aF0
aF0
aF0
aF0
aF0
aF0
aF0
aF0
aF0
aF0
aF0
aF0
aF0
aF0
aF0
aF0
aF0
aF0
aF0
aF0
aF0
aF0
asS'position1_rt'
p121
(lp122
F0
aF0
aF0
aF0
aF0
aF0
aF0
aF0
aF0
aF0
aF0
aF0
aF0
aF0
aF1.4079999923706055
aF0
aF0
aF0
aF0
aF0
aF0
aF0
aF0
aF0
asS'audiovis_rt'
p123
(lp124
F0
aF0
aF0
aF0
aF0
aF0
aF0
aF0
aF0
aF0
aF0
aF0
aF0
aF0
aF0
aF0
aF0
aF0
aF0
aF0
aF0
aF0
aF0
aF0
asS'audio'
p125
(lp126
I4
aI5
aI3
aI3
aI8
aI4
aI3
aI4
aI1
aI4
aI4
aI4
aI3
aI6
aI7
aI7
aI3
aI3
aI1
aI7
aI2
aI3
aI1
aI1
asS'visvis_input'
p127
(lp128
I00
aI00
aI00
aI00
aI00
aI00
aI00
aI00
aI00
aI00
aI00
aI00
aI00
aI00
aI00
aI00
aI00
aI00
aI00
aI00
aI00
aI00
aI00
aI00
assS'mode'
p129
I29
sS'timestamp'
p130
S'2019-11-03 13:50:29'
p131
sS'summary'
p132
(lp133
S'2019-11-03 13:50:29'
p134
aS'PP2B'
p135
aS'0'
aS'29'
p136
aS'2'
aS'30'
p137
aS'24'
p138
aS'0'
aS'2'
aS'0'
aS'0'
aS'0'
aS'0'
aS'0'
aS'0'
aS'0'
aS'0'
aS'0'
aS'0'
aS'0'
aS'0'
aS'0'
aS'0'
aS'0'
aS'0'
asS'trial_duration'
p139
F3
s.(dp1
S'cfg'
p2
(dp3
sS'manual'
p4
I00
sS'n'
I2
sS'trials'
p5
I24
sS'session'
p6
(dp7
S'vis2'
p8
(lp9
I4
aI1
aI2
aI2
aI2
aI5
aI8
aI4
aI6
aI2
aI3
aI6
aI1
aI4
aI7
aI3
aI5
aI3
aI7
aI1
aI3
aI3
aI5
aI4
asS'vis3'
p10
(lp11
I1
aI3
aI3
aI5
aI4
aI1
aI4
aI3
aI4
aI6
aI3
aI1
aI7
aI5
aI3
aI3
aI2
aI5
aI5
aI8
aI6
aI6
aI7
aI6
asS'vis1'
p12
(lp13
I4
aI5
aI3
aI6
aI4
aI1
aI6
aI5
aI6
aI2
aI2
aI6
aI8
aI3
aI5
aI4
aI7
aI3
aI6
aI1
aI8
aI8
aI6
aI4
asS'vis3_input'
p14
(lp15
I00
aI00
aI00
aI00
aI00
aI00
aI00
aI00
aI00
aI00
aI00
aI00
aI00
aI00
aI00
aI00
aI00
aI00
aI00
aI00
aI00
aI00
aI00
aI00
asS'color'
p16
(lp17
I1
aI1
aI1
aI1
aI1
aI1
aI1
aI1
aI1
aI1
aI1
aI1
aI1
aI1
aI1
aI1
aI1
aI1
aI1
aI1
aI1
aI1
aI1
aI1
asS'position4_input'
p18
(lp19
I00
aI00
aI00
aI00
aI00
aI00
aI00
aI00
aI00
aI00
aI00
aI00
aI00
aI00
aI00
aI00
aI00
aI00
aI00
aI00
aI00
aI00
aI00
aI00
asS'image'
p20
(lp21
I0
aI0
aI0
aI0
aI0
aI0
aI0
aI0
aI0
aI0
aI0
aI0
aI0
aI0
aI0
aI0
aI0
aI0
aI0
aI0
aI0
aI0
aI0
aI0
asS'position3_input'
p22
(lp23
I00
aI00
aI00
aI00
aI00
aI00
aI00
aI00
aI00
aI00
aI00
aI00
aI00
aI00
aI00
aI00
aI00
aI00
aI00
aI00
aI00
aI00
aI00
aI00
asS'color_input'
p24
(lp25
I00
aI00
aI00
aI00
aI00
aI00
aI00
aI00
aI00
aI00
aI00
aI00
aI00
aI00
aI00
aI00
aI00
aI00
aI00
aI00
aI00
aI00
aI00
aI00
asS'vis'
p26
(lp27
I0
aI0
aI0
aI0
aI0
aI0
aI0
aI0
aI0
aI0
aI0
aI0
aI0
aI0
aI0
aI0
aI0
aI0
aI0
aI0
aI0
aI0
aI0
aI0
asS'audio_input'
p28
(lp29
I00
aI00
aI00
aI00
aI00
aI00
aI00
aI00
aI00
aI00
aI00
aI00
aI00
aI00
aI00
aI00
aI00
aI00
aI00
aI00
aI00
aI00
aI00
aI00
asS'numbers'
p30
(lp31
I11
aI5
aI9
aI8
aI6
aI3
aI12
aI6
aI7
aI6
aI1
aI8
aI2
aI6
aI5
aI1
aI11
aI4
aI11
aI11
aI4
aI1
aI4
aI3
asS'position2_input'
p32
(lp33
I00
aI00
aI00
aI00
aI00
aI00
aI00
aI00
aI00
aI01
aI01
aI00
aI00
aI00
aI00
aI00
aI00
aI00
aI00
aI00
aI00
aI00
aI00
aI00
asS'vis4_rt'
p34
(lp35
F0
aF0
aF0
aF0
aF0
aF0
aF0
aF0
aF0
aF0
aF0
aF0
aF0
aF0
aF0
aF0
aF0
aF0
aF0
aF0
aF0
aF0
aF0
aF0
asS'operation'
p36
(lp37
S'subtract'
p38
aS'divide'
p39
ag38
ag39
aS'multiply'
p40
aS'add'
p41
ag41
ag39
ag41
ag40
ag41
ag38
ag38
ag40
ag41
ag38
ag39
ag41
ag41
ag40
ag41
ag40
ag41
ag41
asS'position4_rt'
p42
(lp43
F0
aF0
aF0
aF0
aF0
aF0
aF0
aF0
aF0
aF0
aF0
aF0
aF0
aF0
aF0
aF0
aF0
aF0
aF0
aF0
aF0
aF0
aF0
aF0
asS'vis2_input'
p44
(lp45
I00
aI00
aI00
aI00
aI00
aI00
aI00
aI00
aI00
aI00
aI00
aI00
aI00
aI00
aI00
aI00
aI00
aI00
aI00
aI00
aI00
aI00
aI00
aI00
asS'visaudio_rt'
p46
(lp47
F0
aF0
aF0
aF0
aF0
aF0
aF0
aF0
aF0
aF0
aF0
aF0
aF0
aF0
aF0
aF0
aF0
aF0
aF0
aF0
aF0
aF0
aF0
aF0
asS'vis4'
p48
(lp49
I6
aI6
aI3
aI4
aI6
aI5
aI6
aI1
aI8
aI8
aI4
aI2
aI4
aI3
aI7
aI3
aI5
aI8
aI1
aI5
aI5
aI1
aI1
aI6
asS'position2'
p50
(lp51
I3
aI3
aI8
aI4
aI3
aI8
aI2
aI7
aI6
aI6
aI7
aI4
aI5
aI6
aI8
aI8
aI7
aI7
aI2
aI3
aI2
aI2
aI4
aI6
asS'position3'
p52
(lp53
I2
aI8
aI5
aI6
aI8
aI7
aI8
aI5
aI3
aI8
aI6
aI2
aI3
aI1
aI7
aI1
aI1
aI5
aI7
aI4
aI4
aI1
aI5
aI1
asS'position1'
p54
(lp55
I4
aI7
aI2
aI2
aI4
aI2
aI7
aI6
aI2
aI7
aI8
aI6
aI6
aI7
aI6
aI3
aI4
aI4
aI4
aI2
aI8
aI8
aI6
aI4
asS'vis1_input'
p56
(lp57
I00
aI00
aI00
aI00
aI00
aI00
aI00
aI00
aI00
aI00
aI00
aI00
aI00
aI00
aI00
aI00
aI00
aI00
aI00
aI00
aI00
aI00
aI00
aI00
asS'position4'
p58
(lp59
I1
aI1
aI3
aI5
aI7
aI3
aI1
aI1
aI1
aI2
aI5
aI5
aI7
aI4
aI5
aI2
aI6
aI3
aI1
aI8
aI5
aI3
aI8
aI7
asS'audio2_rt'
p60
(lp61
F0
aF0
aF0
aF0
aF0
aF0
aF0
aF0
aF0
aF0
aF0
aF0
aF0
aF0
aF0
aF0
aF0
aF0
aF0
aF0
aF0
aF0
aF0
aF0
asS'image_input'
p62
(lp63
I00
aI00
aI00
aI00
aI00
aI00
aI00
aI00
aI00
aI00
aI00
aI00
aI00
aI00
aI00
aI00
aI00
aI00
aI00
aI00
aI00
aI00
aI00
aI00
asS'vis1_rt'
p64
(lp65
F0
aF0
aF0
aF0
aF0
aF0
aF0
aF0
aF0
aF0
aF0
aF0
aF0
aF0
aF0
aF0
aF0
aF0
aF0
aF0
aF0
aF0
aF0
aF0
asS'visaudio_input'
p66
(lp67
I00
aI00
aI00
aI00
aI00
aI00
aI00
aI00
aI00
aI00
aI00
aI00
aI00
aI00
aI00
aI00
aI00
aI00
aI00
aI00
aI00
aI00
aI00
aI00
asS'position1_input'
p68
(lp69
I00
aI00
aI00
aI00
aI00
aI00
aI00
aI00
aI00
aI01
aI01
aI00
aI00
aI00
aI00
aI00
aI00
aI00
aI00
aI00
aI00
aI00
aI00
aI00
asS'vis3_rt'
p70
(lp71
F0
aF0
aF0
aF0
aF0
aF0
aF0
aF0
aF0
aF0
aF0
aF0
aF0
aF0
aF0
aF0
aF0
aF0
aF0
aF0
aF0
aF0
aF0
aF0
asS'visvis_rt'
p72
(lp73
F0
aF0
aF0
aF0
aF0
aF0
aF0
aF0
aF0
aF0
aF0
aF0
aF0
aF0
aF0
aF0
aF0
aF0
aF0
aF0
aF0
aF0
aF0
aF0
asS'audio2'
p74
(lp75
I1
aI4
aI7
aI6
aI4
aI7
aI3
aI3
aI3
aI8
aI8
aI8
aI3
aI1
aI1
aI1
aI6
aI7
aI4
aI7
aI7
aI7
aI4
aI7
asS'image_rt'
p76
(lp77
F0
aF0
aF0
aF0
aF0
aF0
aF0
aF0
aF0
aF0
aF0
aF0
aF0
aF0
aF0
aF0
aF0
aF0
aF0
aF0
aF0
aF0
aF0
aF0
asS'vis2_rt'
p78
(lp79
F0
aF0
aF0
aF0
aF0
aF0
aF0
aF0
aF0
aF0
aF0
aF0
aF0
aF0
aF0
aF0
aF0
aF0
aF0
aF0
aF0
aF0
aF0
aF0
asS'arithmetic_input'
p80
(lp81
cdecimal
Decimal
p82
(S'0'
tRp83
ag82
(S'0'
tRp84
ag82
(S'0'
tRp85
ag82
(S'0'
tRp86
ag82
(S'0'
tRp87
ag82
(S'0'
tRp88
ag82
(S'0'
tRp89
ag82
(S'0'
tRp90
ag82
(S'0'
tRp91
ag82
(S'0'
tRp92
ag82
(S'0'
tRp93
ag82
(S'0'
tRp94
ag82
(S'0'
tRp95
ag82
(S'0'
tRp96
ag82
(S'0'
tRp97
ag82
(S'0'
tRp98
ag82
(S'0'
tRp99
ag82
(S'0'
tRp100
ag82
(S'0'
tRp101
ag82
(S'0'
tRp102
ag82
(S'0'
tRp103
ag82
(S'0'
tRp104
ag82
(S'0'
tRp105
ag82
(S'0'
tRp106
asS'position3_rt'
p107
(lp108
F0
aF0
aF0
aF0
aF0
aF0
aF0
aF0
aF0
aF0
aF0
aF0
aF0
aF0
aF0
aF0
aF0
aF0
aF0
aF0
aF0
aF0
aF0
aF0
asS'vis4_input'
p109
(lp110
I00
aI00
aI00
aI00
aI00
aI00
aI00
aI00
aI00
aI00
aI00
aI00
aI00
aI00
aI00
aI00
aI00
aI00
aI00
aI00
aI00
aI00
aI00
aI00
asS'audio_rt'
p111
(lp112
F0
aF0
aF0
aF0
aF0
aF0
aF0
aF0
aF0
aF0
aF0
aF0
aF0
aF0
aF0
aF0
aF0
aF0
aF0
aF0
aF0
aF0
aF0
aF0
asS'audio2_input'
p113
(lp114
I00
aI00
aI00
aI00
aI00
aI00
aI00
aI00
aI00
aI00
aI00
aI00
aI00
aI00
aI00
aI00
aI00
aI00
aI00
aI00
aI00
aI00
aI00
aI00
asS'position2_rt'
p115
(lp116
F0
aF0
aF0
aF0
aF0
aF0
aF0
aF0
aF0
aF1.7519998550415039
aF0.95499992370605469
aF0
aF0
aF0
aF0
aF0
aF0
aF0
aF0
aF0
aF0
aF0
aF0
aF0
asS'audiovis_input'
p117
(lp118
I00
aI00
aI00
aI00
aI00
aI00
aI00
aI00
aI00
aI00
aI00
aI00
aI00
aI00
aI00
aI00
aI00
aI00
aI00
aI00
aI00
aI00
aI00
aI00
asS'color_rt'
p119
(lp120
F0
aF0
aF0
aF0
aF0
aF0
aF0
aF0
aF0
aF0
aF0
aF0
aF0
aF0
aF0
aF0
aF0
aF0
aF0
aF0
aF0
aF0
aF0
aF0
asS'position1_rt'
p121
(lp122
F0
aF0
aF0
aF0
aF0
aF0
aF0
aF0
aF0
aF2.6119999885559082
aF1.437999963760376
aF0
aF0
aF0
aF0
aF0
aF0
aF0
aF0
aF0
aF0
aF0
aF0
aF0
asS'audiovis_rt'
p123
(lp124
F0
aF0
aF0
aF0
aF0
aF0
aF0
aF0
aF0
aF0
aF0
aF0
aF0
aF0
aF0
aF0
aF0
aF0
aF0
aF0
aF0
aF0
aF0
aF0
asS'audio'
p125
(lp126
I5
aI1
aI1
aI4
aI2
aI8
aI5
aI8
aI4
aI6
aI7
aI5
aI6
aI5
aI4
aI3
aI8
aI6
aI6
aI2
aI2
aI4
aI6
aI6
asS'visvis_input'
p127
(lp128
I00
aI00
aI00
aI00
aI00
aI00
aI00
aI00
aI00
aI00
aI00
aI00
aI00
aI00
aI00
aI00
aI00
aI00
aI00
aI00
aI00
aI00
aI00
aI00
assS'mode'
p129
I29
sS'timestamp'
p130
S'2019-11-03 13:52:54'
p131
sS'summary'
p132
(lp133
S'2019-11-03 13:52:54'
p134
aS'PP2B'
p135
aS'0'
aS'29'
p136
aS'2'
aS'30'
p137
aS'24'
p138
aS'0'
aS'3'
aS'0'
aS'0'
aS'0'
aS'0'
aS'0'
aS'0'
aS'0'
aS'0'
aS'0'
aS'0'
aS'0'
aS'0'
aS'0'
aS'0'
aS'0'
aS'0'
asS'trial_duration'
p139
F3
s.(dp1
S'cfg'
p2
(dp3
sS'manual'
p4
I00
sS'n'
I2
sS'trials'
p5
I21
sS'session'
p6
(dp7
S'vis2'
p8
(lp9
I8
aI5
aI1
aI4
aI4
aI2
aI2
aI5
aI3
aI6
aI7
aI5
aI3
aI1
aI2
aI1
aI5
aI1
aI7
aI8
aI3
asS'vis3'
p10
(lp11
I8
aI7
aI3
aI2
aI7
aI4
aI6
aI4
aI6
aI7
aI3
aI6
aI5
aI4
aI1
aI2
aI7
aI1
aI4
aI8
aI8
asS'vis1'
p12
(lp13
I2
aI1
aI6
aI2
aI6
aI8
aI8
aI6
aI8
aI5
aI7
aI4
aI2
aI6
aI2
aI6
aI5
aI6
aI1
aI6
aI5
asS'vis3_input'
p14
(lp15
I00
aI00
aI00
aI00
aI00
aI00
aI00
aI00
aI00
aI00
aI00
aI00
aI00
aI00
aI00
aI00
aI00
aI00
aI00
aI00
aI00
asS'color'
p16
(lp17
I1
aI1
aI1
aI1
aI1
aI1
aI1
aI1
aI1
aI1
aI1
aI1
aI1
aI1
aI1
aI1
aI1
aI1
aI1
aI1
aI1
asS'position4_input'
p18
(lp19
I00
aI00
aI00
aI00
aI00
aI00
aI00
aI00
aI00
aI00
aI00
aI00
aI00
aI00
aI00
aI00
aI00
aI00
aI00
aI00
aI00
asS'image'
p20
(lp21
I0
aI0
aI0
aI0
aI0
aI0
aI0
aI0
aI0
aI0
aI0
aI0
aI0
aI0
aI0
aI0
aI0
aI0
aI0
aI0
aI0
asS'position3_input'
p22
(lp23
I00
aI00
aI00
aI00
aI00
aI00
aI00
aI00
aI00
aI00
aI00
aI00
aI00
aI00
aI00
aI00
aI00
aI00
aI00
aI00
aI00
asS'color_input'
p24
(lp25
I00
aI00
aI00
aI00
aI00
aI00
aI00
aI00
aI00
aI00
aI00
aI00
aI00
aI00
aI00
aI00
aI00
aI00
aI00
aI00
aI00
asS'vis'
p26
(lp27
I0
aI0
aI0
aI0
aI0
aI0
aI0
aI0
aI0
aI0
aI0
aI0
aI0
aI0
aI0
aI0
aI0
aI0
aI0
aI0
aI0
asS'audio_input'
p28
(lp29
I00
aI00
aI00
aI00
aI00
aI00
aI00
aI00
aI00
aI00
aI00
aI00
aI00
aI00
aI00
aI00
aI00
aI00
aI00
aI00
aI00
asS'numbers'
p30
(lp31
I6
aI9
aI7
aI4
aI0
aI4
aI5
aI9
aI2
aI6
aI10
aI6
aI0
aI6
aI8
aI8
aI9
aI3
aI6
aI10
aI1
asS'position2_input'
p32
(lp33
I00
aI00
aI01
aI01
aI00
aI00
aI00
aI00
aI00
aI00
aI00
aI00
aI00
aI00
aI00
aI00
aI00
aI00
aI00
aI00
aI00
asS'vis4_rt'
p34
(lp35
F0
aF0
aF0
aF0
aF0
aF0
aF0
aF0
aF0
aF0
aF0
aF0
aF0
aF0
aF0
aF0
aF0
aF0
aF0
aF0
aF0
asS'operation'
p36
(lp37
S'add'
p38
aS'divide'
p39
ag38
ag39
aS'subtract'
p40
ag39
ag38
aS'multiply'
p41
ag39
ag39
ag41
ag41
ag39
ag38
ag40
ag39
ag41
ag38
ag40
ag38
ag40
asS'position4_rt'
p42
(lp43
F0
aF0
aF0
aF0
aF0
aF0
aF0
aF0
aF0
aF0
aF0
aF0
aF0
aF0
aF0
aF0
aF0
aF0
aF0
aF0
aF0
asS'vis2_input'
p44
(lp45
I00
aI00
aI00
aI00
aI00
aI00
aI00
aI00
aI00
aI00
aI00
aI00
aI00
aI00
aI00
aI00
aI00
aI00
aI00
aI00
aI00
asS'visaudio_rt'
p46
(lp47
F0
aF0
aF0
aF0
aF0
aF0
aF0
aF0
aF0
aF0
aF0
aF0
aF0
aF0
aF0
aF0
aF0
aF0
aF0
aF0
aF0
asS'vis4'
p48
(lp49
I7
aI7
aI3
aI7
aI5
aI2
aI5
aI5
aI8
aI5
aI4
aI5
aI8
aI6
aI5
aI5
aI8
aI1
aI4
aI1
aI6
asS'position2'
p50
(lp51
I1
aI5
aI1
aI8
aI7
aI4
aI2
aI4
aI7
aI1
aI2
aI3
aI6
aI3
aI1
aI4
aI3
aI7
aI3
aI3
aI6
asS'position3'
p52
(lp53
I3
aI3
aI3
aI2
aI4
aI3
aI8
aI6
aI2
aI8
aI8
aI5
aI2
aI2
aI5
aI8
aI7
aI4
aI5
aI3
aI7
asS'position1'
p54
(lp55
I5
aI8
aI5
aI5
aI5
aI6
aI3
aI2
aI6
aI4
aI7
aI2
aI7
aI7
aI4
aI7
aI7
aI2
aI1
aI7
aI4
asS'vis1_input'
p56
(lp57
I00
aI00
aI00
aI00
aI00
aI00
aI00
aI00
aI00
aI00
aI00
aI00
aI00
aI00
aI00
aI00
aI00
aI00
aI00
aI00
aI00
asS'position4'
p58
(lp59
I8
aI2
aI1
aI3
aI5
aI8
aI6
aI5
aI5
aI3
aI3
aI6
aI8
aI3
aI7
aI6
aI4
aI3
aI8
aI2
aI5
asS'audio2_rt'
p60
(lp61
F0
aF0
aF0
aF0
aF0
aF0
aF0
aF0
aF0
aF0
aF0
aF0
aF0
aF0
aF0
aF0
aF0
aF0
aF0
aF0
aF0
asS'image_input'
p62
(lp63
I00
aI00
aI00
aI00
aI00
aI00
aI00
aI00
aI00
aI00
aI00
aI00
aI00
aI00
aI00
aI00
aI00
aI00
aI00
aI00
aI00
asS'vis1_rt'
p64
(lp65
F0
aF0
aF0
aF0
aF0
aF0
aF0
aF0
aF0
aF0
aF0
aF0
aF0
aF0
aF0
aF0
aF0
aF0
aF0
aF0
aF0
asS'visaudio_input'
p66
(lp67
I00
aI00
aI00
aI00
aI00
aI00
aI00
aI00
aI00
aI00
aI00
aI00
aI00
aI00
aI00
aI00
aI00
aI00
aI00
aI00
aI00
asS'position1_input'
p68
(lp69
I00
aI00
aI00
aI00
aI00
aI00
aI00
aI00
aI00
aI00
aI00
aI00
aI00
aI00
aI00
aI00
aI00
aI00
aI00
aI00
aI00
asS'vis3_rt'
p70
(lp71
F0
aF0
aF0
aF0
aF0
aF0
aF0
aF0
aF0
aF0
aF0
aF0
aF0
aF0
aF0
aF0
aF0
aF0
aF0
aF0
aF0
asS'visvis_rt'
p72
(lp73
F0
aF0
aF0
aF0
aF0
aF0
aF0
aF0
aF0
aF0
aF0
aF0
aF0
aF0
aF0
aF0
aF0
aF0
aF0
aF0
aF0
asS'audio2'
p74
(lp75
I7
aI1
aI3
aI1
aI1
aI6
aI4
aI1
aI5
aI2
aI1
aI4
aI6
aI7
aI5
aI4
aI2
aI1
aI2
aI4
aI5
asS'image_rt'
p76
(lp77
F0
aF0
aF0
aF0
aF0
aF0
aF0
aF0
aF0
aF0
aF0
aF0
aF0
aF0
aF0
aF0
aF0
aF0
aF0
aF0
aF0
asS'vis2_rt'
p78
(lp79
F0
aF0
aF0
aF0
aF0
aF0
aF0
aF0
aF0
aF0
aF0
aF0
aF0
aF0
aF0
aF0
aF0
aF0
aF0
aF0
aF0
asS'arithmetic_input'
p80
(lp81
cdecimal
Decimal
p82
(S'0'
tRp83
ag82
(S'0'
tRp84
ag82
(S'0'
tRp85
ag82
(S'0'
tRp86
ag82
(S'0'
tRp87
ag82
(S'0'
tRp88
ag82
(S'0'
tRp89
ag82
(S'0'
tRp90
ag82
(S'0'
tRp91
ag82
(S'0'
tRp92
ag82
(S'0'
tRp93
ag82
(S'0'
tRp94
ag82
(S'0'
tRp95
ag82
(S'0'
tRp96
ag82
(S'0'
tRp97
ag82
(S'0'
tRp98
ag82
(S'0'
tRp99
ag82
(S'0'
tRp100
ag82
(S'0'
tRp101
ag82
(S'0'
tRp102
ag82
(S'0'
tRp103
asS'position3_rt'
p104
(lp105
F0
aF0
aF0
aF0
aF0
aF0
aF0
aF0
aF0
aF0
aF0
aF0
aF0
aF0
aF0
aF0
aF0
aF0
aF0
aF0
aF0
asS'vis4_input'
p106
(lp107
I00
aI00
aI00
aI00
aI00
aI00
aI00
aI00
aI00
aI00
aI00
aI00
aI00
aI00
aI00
aI00
aI00
aI00
aI00
aI00
aI00
asS'audio_rt'
p108
(lp109
F0
aF0
aF0
aF0
aF0
aF0
aF0
aF0
aF0
aF0
aF0
aF0
aF0
aF0
aF0
aF0
aF0
aF0
aF0
aF0
aF0
asS'audio2_input'
p110
(lp111
I00
aI00
aI00
aI00
aI00
aI00
aI00
aI00
aI00
aI00
aI00
aI00
aI00
aI00
aI00
aI00
aI00
aI00
aI00
aI00
aI00
asS'position2_rt'
p112
(lp113
F0
aF0
aF1.1099998950958252
aF1.7820000648498535
aF0
aF0
aF0
aF0
aF0
aF0
aF0
aF0
aF0
aF0
aF0
aF0
aF0
aF0
aF0
aF0
aF0
asS'audiovis_input'
p114
(lp115
I00
aI00
aI00
aI00
aI00
aI00
aI00
aI00
aI00
aI00
aI00
aI00
aI00
aI00
aI00
aI00
aI00
aI00
aI00
aI00
aI00
asS'color_rt'
p116
(lp117
F0
aF0
aF0
aF0
aF0
aF0
aF0
aF0
aF0
aF0
aF0
aF0
aF0
aF0
aF0
aF0
aF0
aF0
aF0
aF0
aF0
asS'position1_rt'
p118
(lp119
F0
aF0
aF0
aF0
aF0
aF0
aF0
aF0
aF0
aF0
aF0
aF0
aF0
aF0
aF0
aF0
aF0
aF0
aF0
aF0
aF0
asS'audiovis_rt'
p120
(lp121
F0
aF0
aF0
aF0
aF0
aF0
aF0
aF0
aF0
aF0
aF0
aF0
aF0
aF0
aF0
aF0
aF0
aF0
aF0
aF0
aF0
asS'audio'
p122
(lp123
I4
aI7
aI6
aI7
aI8
aI5
aI3
aI1
aI1
aI6
aI7
aI7
aI2
aI2
aI8
aI5
aI7
aI7
aI6
aI6
aI3
asS'visvis_input'
p124
(lp125
I00
aI00
aI00
aI00
aI00
aI00
aI00
aI00
aI00
aI00
aI00
aI00
aI00
aI00
aI00
aI00
aI00
aI00
aI00
aI00
aI00
assS'mode'
p126
I29
sS'timestamp'
p127
S'2019-11-03 13:54:28'
p128
sS'summary'
p129
(lp130
S'2019-11-03 13:54:28'
p131
aS'PP2B'
p132
aS'11'
p133
aS'29'
p134
aS'2'
aS'30'
p135
aS'21'
p136
aS'0'
aS'4'
aS'0'
aS'0'
aS'0'
aS'0'
aS'0'
aS'0'
aS'0'
aS'0'
aS'0'
aS'20'
p137
aS'0'
aS'0'
aS'0'
aS'0'
aS'0'
aS'0'
asS'trial_duration'
p138
F3
s.(dp1
S'cfg'
p2
(dp3
sS'manual'
p4
I00
sS'n'
I2
sS'trials'
p5
I21
sS'session'
p6
(dp7
S'vis2'
p8
(lp9
I8
aI4
aI1
aI1
aI8
aI6
aI4
aI7
aI2
aI2
aI3
aI6
aI7
aI2
aI5
aI1
aI6
aI4
aI8
aI8
aI8
asS'vis3'
p10
(lp11
I2
aI4
aI5
aI8
aI7
aI6
aI7
aI6
aI5
aI2
aI2
aI4
aI8
aI7
aI4
aI7
aI3
aI6
aI5
aI6
aI2
asS'vis1'
p12
(lp13
I4
aI6
aI8
aI2
aI3
aI3
aI7
aI2
aI4
aI3
aI4
aI2
aI4
aI8
aI6
aI1
aI6
aI5
aI7
aI1
aI3
asS'vis3_input'
p14
(lp15
I00
aI00
aI00
aI00
aI00
aI00
aI00
aI00
aI00
aI00
aI00
aI00
aI00
aI00
aI00
aI00
aI00
aI00
aI00
aI00
aI00
asS'color'
p16
(lp17
I1
aI1
aI1
aI1
aI1
aI1
aI1
aI1
aI1
aI1
aI1
aI1
aI1
aI1
aI1
aI1
aI1
aI1
aI1
aI1
aI1
asS'position4_input'
p18
(lp19
I00
aI00
aI00
aI00
aI00
aI00
aI00
aI00
aI00
aI00
aI00
aI00
aI00
aI00
aI00
aI00
aI00
aI00
aI00
aI00
aI00
asS'image'
p20
(lp21
I0
aI0
aI0
aI0
aI0
aI0
aI0
aI0
aI0
aI0
aI0
aI0
aI0
aI0
aI0
aI0
aI0
aI0
aI0
aI0
aI0
asS'position3_input'
p22
(lp23
I00
aI00
aI00
aI00
aI00
aI00
aI00
aI00
aI00
aI00
aI00
aI00
aI00
aI00
aI00
aI00
aI00
aI00
aI00
aI00
aI00
asS'color_input'
p24
(lp25
I00
aI00
aI00
aI00
aI00
aI00
aI00
aI00
aI00
aI00
aI00
aI00
aI00
aI00
aI00
aI00
aI00
aI00
aI00
aI00
aI00
asS'vis'
p26
(lp27
I0
aI0
aI0
aI0
aI0
aI0
aI0
aI0
aI0
aI0
aI0
aI0
aI0
aI0
aI0
aI0
aI0
aI0
aI0
aI0
aI0
asS'audio_input'
p28
(lp29
I00
aI00
aI00
aI00
aI00
aI00
aI00
aI00
aI00
aI00
aI00
aI00
aI00
aI00
aI00
aI00
aI00
aI00
aI00
aI00
aI00
asS'numbers'
p30
(lp31
I9
aI4
aI0
aI1
aI8
aI2
aI1
aI0
aI9
aI1
aI0
aI2
aI3
aI12
aI7
aI4
aI2
aI3
aI1
aI12
aI1
asS'position2_input'
p32
(lp33
I00
aI00
aI00
aI00
aI01
aI00
aI00
aI01
aI00
aI00
aI01
aI00
aI01
aI00
aI01
aI00
aI00
aI00
aI00
aI01
aI00
asS'vis4_rt'
p34
(lp35
F0
aF0
aF0
aF0
aF0
aF0
aF0
aF0
aF0
aF0
aF0
aF0
aF0
aF0
aF0
aF0
aF0
aF0
aF0
aF0
aF0
asS'operation'
p36
(lp37
S'subtract'
p38
aS'multiply'
p39
aS'add'
p40
ag39
ag39
ag39
ag38
aS'divide'
p41
ag38
ag41
ag39
ag40
ag41
ag39
ag39
ag40
ag40
ag40
ag38
ag38
ag41
asS'position4_rt'
p42
(lp43
F0
aF0
aF0
aF0
aF0
aF0
aF0
aF0
aF0
aF0
aF0
aF0
aF0
aF0
aF0
aF0
aF0
aF0
aF0
aF0
aF0
asS'vis2_input'
p44
(lp45
I00
aI00
aI00
aI00
aI00
aI00
aI00
aI00
aI00
aI00
aI00
aI00
aI00
aI00
aI00
aI00
aI00
aI00
aI00
aI00
aI00
asS'visaudio_rt'
p46
(lp47
F0
aF0
aF0
aF0
aF0
aF0
aF0
aF0
aF0
aF0
aF0
aF0
aF0
aF0
aF0
aF0
aF0
aF0
aF0
aF0
aF0
asS'vis4'
p48
(lp49
I2
aI6
aI2
aI4
aI5
aI4
aI4
aI8
aI3
aI2
aI3
aI6
aI1
aI7
aI4
aI8
aI8
aI2
aI4
aI4
aI8
asS'position2'
p50
(lp51
I1
aI7
aI7
aI2
aI7
aI3
aI2
aI3
aI4
aI6
aI4
aI3
aI4
aI4
aI4
aI6
aI2
aI7
aI8
aI7
aI1
asS'position3'
p52
(lp53
I2
aI8
aI4
aI1
aI2
aI1
aI1
aI2
aI2
aI1
aI1
aI6
aI1
aI6
aI7
aI3
aI6
aI8
aI5
aI6
aI7
asS'position1'
p54
(lp55
I6
aI6
aI5
aI8
aI6
aI8
aI4
aI8
aI3
aI8
aI3
aI8
aI8
aI1
aI2
aI1
aI8
aI6
aI2
aI5
aI8
asS'vis1_input'
p56
(lp57
I00
aI00
aI00
aI00
aI00
aI00
aI00
aI00
aI00
aI00
aI00
aI00
aI00
aI00
aI00
aI00
aI00
aI00
aI00
aI00
aI00
asS'position4'
p58
(lp59
I8
aI2
aI2
aI7
aI5
aI7
aI8
aI3
aI7
aI2
aI2
aI4
aI4
aI7
aI4
aI8
aI3
aI4
aI1
aI2
aI2
asS'audio2_rt'
p60
(lp61
F0
aF0
aF0
aF0
aF0
aF0
aF0
aF0
aF0
aF0
aF0
aF0
aF0
aF0
aF0
aF0
aF0
aF0
aF0
aF0
aF0
asS'image_input'
p62
(lp63
I00
aI00
aI00
aI00
aI00
aI00
aI00
aI00
aI00
aI00
aI00
aI00
aI00
aI00
aI00
aI00
aI00
aI00
aI00
aI00
aI00
asS'vis1_rt'
p64
(lp65
F0
aF0
aF0
aF0
aF0
aF0
aF0
aF0
aF0
aF0
aF0
aF0
aF0
aF0
aF0
aF0
aF0
aF0
aF0
aF0
aF0
asS'visaudio_input'
p66
(lp67
I00
aI00
aI00
aI00
aI00
aI00
aI00
aI00
aI00
aI00
aI00
aI00
aI00
aI00
aI00
aI00
aI00
aI00
aI00
aI00
aI00
asS'position1_input'
p68
(lp69
I00
aI00
aI00
aI00
aI00
aI00
aI00
aI00
aI00
aI00
aI00
aI00
aI00
aI00
aI00
aI00
aI00
aI00
aI00
aI00
aI00
asS'vis3_rt'
p70
(lp71
F0
aF0
aF0
aF0
aF0
aF0
aF0
aF0
aF0
aF0
aF0
aF0
aF0
aF0
aF0
aF0
aF0
aF0
aF0
aF0
aF0
asS'visvis_rt'
p72
(lp73
F0
aF0
aF0
aF0
aF0
aF0
aF0
aF0
aF0
aF0
aF0
aF0
aF0
aF0
aF0
aF0
aF0
aF0
aF0
aF0
aF0
asS'audio2'
p74
(lp75
I5
aI7
aI6
aI4
aI2
aI8
aI6
aI8
aI6
aI3
aI8
aI3
aI2
aI1
aI2
aI1
aI4
aI7
aI1
aI6
aI2
asS'image_rt'
p76
(lp77
F0
aF0
aF0
aF0
aF0
aF0
aF0
aF0
aF0
aF0
aF0
aF0
aF0
aF0
aF0
aF0
aF0
aF0
aF0
aF0
aF0
asS'vis2_rt'
p78
(lp79
F0
aF0
aF0
aF0
aF0
aF0
aF0
aF0
aF0
aF0
aF0
aF0
aF0
aF0
aF0
aF0
aF0
aF0
aF0
aF0
aF0
asS'arithmetic_input'
p80
(lp81
cdecimal
Decimal
p82
(S'0'
tRp83
ag82
(S'0'
tRp84
ag82
(S'0'
tRp85
ag82
(S'0'
tRp86
ag82
(S'0'
tRp87
ag82
(S'0'
tRp88
ag82
(S'0'
tRp89
ag82
(S'0'
tRp90
ag82
(S'0'
tRp91
ag82
(S'0'
tRp92
ag82
(S'0'
tRp93
ag82
(S'0'
tRp94
ag82
(S'0'
tRp95
ag82
(S'0'
tRp96
ag82
(S'0'
tRp97
ag82
(S'0'
tRp98
ag82
(S'0'
tRp99
ag82
(S'0'
tRp100
ag82
(S'0'
tRp101
ag82
(S'0'
tRp102
ag82
(S'0'
tRp103
asS'position3_rt'
p104
(lp105
F0
aF0
aF0
aF0
aF0
aF0
aF0
aF0
aF0
aF0
aF0
aF0
aF0
aF0
aF0
aF0
aF0
aF0
aF0
aF0
aF0
asS'vis4_input'
p106
(lp107
I00
aI00
aI00
aI00
aI00
aI00
aI00
aI00
aI00
aI00
aI00
aI00
aI00
aI00
aI00
aI00
aI00
aI00
aI00
aI00
aI00
asS'audio_rt'
p108
(lp109
F0
aF0
aF0
aF0
aF0
aF0
aF0
aF0
aF0
aF0
aF0
aF0
aF0
aF0
aF0
aF0
aF0
aF0
aF0
aF0
aF0
asS'audio2_input'
p110
(lp111
I00
aI00
aI00
aI00
aI00
aI00
aI00
aI00
aI00
aI00
aI00
aI00
aI00
aI00
aI00
aI00
aI00
aI00
aI00
aI00
aI00
asS'position2_rt'
p112
(lp113
F0
aF0
aF0
aF0
aF1.062999963760376
aF0
aF0
aF2.6419999599456787
aF0
aF0
aF0.625
aF0
aF1.0010001659393311
aF0
aF1.1260001659393311
aF0
aF0
aF0
aF0
aF2.3589999675750732
aF0
asS'audiovis_input'
p114
(lp115
I00
aI00
aI00
aI00
aI00
aI00
aI00
aI00
aI00
aI00
aI00
aI00
aI00
aI00
aI00
aI00
aI00
aI00
aI00
aI00
aI00
asS'color_rt'
p116
(lp117
F0
aF0
aF0
aF0
aF0
aF0
aF0
aF0
aF0
aF0
aF0
aF0
aF0
aF0
aF0
aF0
aF0
aF0
aF0
aF0
aF0
asS'position1_rt'
p118
(lp119
F0
aF0
aF0
aF0
aF0
aF0
aF0
aF0
aF0
aF0
aF0
aF0
aF0
aF0
aF0
aF0
aF0
aF0
aF0
aF0
aF0
asS'audiovis_rt'
p120
(lp121
F0
aF0
aF0
aF0
aF0
aF0
aF0
aF0
aF0
aF0
aF0
aF0
aF0
aF0
aF0
aF0
aF0
aF0
aF0
aF0
aF0
asS'audio'
p122
(lp123
I4
aI8
aI5
aI2
aI1
aI1
aI2
aI7
aI7
aI4
aI5
aI8
aI5
aI2
aI7
aI5
aI5
aI6
aI3
aI6
aI3
asS'visvis_input'
p124
(lp125
I00
aI00
aI00
aI00
aI00
aI00
aI00
aI00
aI00
aI00
aI00
aI00
aI00
aI00
aI00
aI00
aI00
aI00
aI00
aI00
aI00
assS'mode'
p126
I29
sS'timestamp'
p127
S'2019-11-03 13:55:37'
p128
sS'summary'
p129
(lp130
S'2019-11-03 13:55:37'
p131
aS'PP2B'
p132
aS'50'
p133
aS'29'
p134
aS'2'
aS'30'
p135
aS'21'
p136
aS'0'
aS'5'
aS'0'
aS'0'
aS'0'
aS'0'
aS'0'
aS'0'
aS'0'
aS'0'
aS'0'
aS'100'
p137
aS'0'
aS'0'
aS'0'
aS'0'
aS'0'
aS'0'
asS'trial_duration'
p138
F3
s.